; Function Attrs: mustprogress uwtable
define void @_ZNK15FilterIcpPlugin10filterInfoEi(ptr dead_on_unwind noalias writable sret(%class.QString) align 8 %0, ptr nocapture noundef nonnull readnone align 8 dereferenceable(204) %1, i32 noundef %2) unnamed_addr #9 align 2 {
  switch i32 %2, label %7 [
    i32 0, label %4
    i32 1, label %5
    i32 2, label %6
  ]

4:                                                ; preds = %3
  tail call void @_ZNK11QMetaObject2trEPKcS1_i(ptr dead_on_unwind writable sret(%class.QString) align 8 %0, ptr noundef nonnull align 8 dereferenceable(48) @_ZN15FilterIcpPlugin16staticMetaObjectE, ptr noundef nonnull @.str.16, ptr noundef null, i32 noundef -1)
  br label %9

5:                                                ; preds = %3
  tail call void @_ZNK11QMetaObject2trEPKcS1_i(ptr dead_on_unwind writable sret(%class.QString) align 8 %0, ptr noundef nonnull align 8 dereferenceable(48) @_ZN15FilterIcpPlugin16staticMetaObjectE, ptr noundef nonnull @.str.17, ptr noundef null, i32 noundef -1)
  br label %9

6:                                                ; preds = %3
  tail call void @_ZNK11QMetaObject2trEPKcS1_i(ptr dead_on_unwind writable sret(%class.QString) align 8 %0, ptr noundef nonnull align 8 dereferenceable(48) @_ZN15FilterIcpPlugin16staticMetaObjectE, ptr noundef nonnull @.str.18, ptr noundef null, i32 noundef -1)
  br label %9

7:                                                ; preds = %3
  %8 = tail call noundef ptr @_ZN7QString16fromAscii_helperEPKci(ptr noundef nonnull @.str.19, i32 noundef 14)
  store ptr %8, ptr %0, align 8
  br label %9

9:                                                ; preds = %7, %6, %5, %4
  ret void
}